
Serial2.elf:     file format elf32-avr

Sections:
Idx Name          Size      VMA       LMA       File off  Algn
  0 .data         00000000  00800100  00800100  00000234  2**0
                  CONTENTS, ALLOC, LOAD, DATA
  1 .text         000001e0  00000000  00000000  00000054  2**1
                  CONTENTS, ALLOC, LOAD, READONLY, CODE
  2 .comment      00000030  00000000  00000000  00000234  2**0
                  CONTENTS, READONLY
  3 .note.gnu.avr.deviceinfo 0000003c  00000000  00000000  00000264  2**2
                  CONTENTS, READONLY
  4 .debug_aranges 00000030  00000000  00000000  000002a0  2**0
                  CONTENTS, READONLY, DEBUGGING
  5 .debug_info   00000895  00000000  00000000  000002d0  2**0
                  CONTENTS, READONLY, DEBUGGING
  6 .debug_abbrev 0000070d  00000000  00000000  00000b65  2**0
                  CONTENTS, READONLY, DEBUGGING
  7 .debug_line   00000333  00000000  00000000  00001272  2**0
                  CONTENTS, READONLY, DEBUGGING
  8 .debug_frame  00000044  00000000  00000000  000015a8  2**2
                  CONTENTS, READONLY, DEBUGGING
  9 .debug_str    00000394  00000000  00000000  000015ec  2**0
                  CONTENTS, READONLY, DEBUGGING
 10 .debug_loc    0000014c  00000000  00000000  00001980  2**0
                  CONTENTS, READONLY, DEBUGGING
 11 .debug_ranges 00000020  00000000  00000000  00001acc  2**0
                  CONTENTS, READONLY, DEBUGGING

Disassembly of section .text:

00000000 <__vectors>:
   0:	0c 94 34 00 	jmp	0x68	; 0x68 <__ctors_end>
   4:	0c 94 3e 00 	jmp	0x7c	; 0x7c <__bad_interrupt>
   8:	0c 94 3e 00 	jmp	0x7c	; 0x7c <__bad_interrupt>
   c:	0c 94 3e 00 	jmp	0x7c	; 0x7c <__bad_interrupt>
  10:	0c 94 3e 00 	jmp	0x7c	; 0x7c <__bad_interrupt>
  14:	0c 94 3e 00 	jmp	0x7c	; 0x7c <__bad_interrupt>
  18:	0c 94 3e 00 	jmp	0x7c	; 0x7c <__bad_interrupt>
  1c:	0c 94 3e 00 	jmp	0x7c	; 0x7c <__bad_interrupt>
  20:	0c 94 3e 00 	jmp	0x7c	; 0x7c <__bad_interrupt>
  24:	0c 94 3e 00 	jmp	0x7c	; 0x7c <__bad_interrupt>
  28:	0c 94 3e 00 	jmp	0x7c	; 0x7c <__bad_interrupt>
  2c:	0c 94 3e 00 	jmp	0x7c	; 0x7c <__bad_interrupt>
  30:	0c 94 3e 00 	jmp	0x7c	; 0x7c <__bad_interrupt>
  34:	0c 94 3e 00 	jmp	0x7c	; 0x7c <__bad_interrupt>
  38:	0c 94 3e 00 	jmp	0x7c	; 0x7c <__bad_interrupt>
  3c:	0c 94 3e 00 	jmp	0x7c	; 0x7c <__bad_interrupt>
  40:	0c 94 3e 00 	jmp	0x7c	; 0x7c <__bad_interrupt>
  44:	0c 94 3e 00 	jmp	0x7c	; 0x7c <__bad_interrupt>
  48:	0c 94 3e 00 	jmp	0x7c	; 0x7c <__bad_interrupt>
  4c:	0c 94 3e 00 	jmp	0x7c	; 0x7c <__bad_interrupt>
  50:	0c 94 3e 00 	jmp	0x7c	; 0x7c <__bad_interrupt>
  54:	0c 94 3e 00 	jmp	0x7c	; 0x7c <__bad_interrupt>
  58:	0c 94 3e 00 	jmp	0x7c	; 0x7c <__bad_interrupt>
  5c:	0c 94 3e 00 	jmp	0x7c	; 0x7c <__bad_interrupt>
  60:	0c 94 3e 00 	jmp	0x7c	; 0x7c <__bad_interrupt>
  64:	0c 94 3e 00 	jmp	0x7c	; 0x7c <__bad_interrupt>

00000068 <__ctors_end>:
  68:	11 24       	eor	r1, r1
  6a:	1f be       	out	0x3f, r1	; 63
  6c:	cf ef       	ldi	r28, 0xFF	; 255
  6e:	d8 e0       	ldi	r29, 0x08	; 8
  70:	de bf       	out	0x3e, r29	; 62
  72:	cd bf       	out	0x3d, r28	; 61
  74:	0e 94 80 00 	call	0x100	; 0x100 <main>
  78:	0c 94 ee 00 	jmp	0x1dc	; 0x1dc <_exit>

0000007c <__bad_interrupt>:
  7c:	0c 94 00 00 	jmp	0	; 0x0 <__vectors>

00000080 <serial_read_nibble>:
	loop_until_bit_is_set(UCSR0A, UDRE0); UDR0 = c;
}

inline byte serial_read_byte()
{
	loop_until_bit_is_set(UCSR0A, RXC0); return UDR0;
  80:	80 91 c0 00 	lds	r24, 0x00C0	; 0x8000c0 <__TEXT_REGION_LENGTH__+0x7f80c0>
  84:	88 23       	and	r24, r24
  86:	e4 f7       	brge	.-8      	; 0x80 <serial_read_nibble>
  88:	80 91 c6 00 	lds	r24, 0x00C6	; 0x8000c6 <__TEXT_REGION_LENGTH__+0x7f80c6>

byte serial_read_nibble()
{
	byte nibble = serial_read_byte();
	
	if ((nibble >= 'A') && (nibble <= 'F'))
  8c:	9f eb       	ldi	r25, 0xBF	; 191
  8e:	98 0f       	add	r25, r24
  90:	96 30       	cpi	r25, 0x06	; 6
  92:	10 f4       	brcc	.+4      	; 0x98 <serial_read_nibble+0x18>
	{
		nibble -= 'A' - 10;
  94:	87 53       	subi	r24, 0x37	; 55
  96:	08 95       	ret
	}
	else if ((nibble >= 'a') && (nibble <= 'f'))
  98:	9f e9       	ldi	r25, 0x9F	; 159
  9a:	98 0f       	add	r25, r24
  9c:	96 30       	cpi	r25, 0x06	; 6
  9e:	10 f4       	brcc	.+4      	; 0xa4 <serial_read_nibble+0x24>
	{
		nibble -= 'a' - 10;
  a0:	87 55       	subi	r24, 0x57	; 87
  a2:	08 95       	ret
	}
	else if ((nibble >= '0') && (nibble <= '9'))
  a4:	80 53       	subi	r24, 0x30	; 48
  a6:	8a 30       	cpi	r24, 0x0A	; 10
  a8:	08 f0       	brcs	.+2      	; 0xac <serial_read_nibble+0x2c>
	{
		nibble -= '0';
	}
	else
	{
		nibble = 0;
  aa:	80 e0       	ldi	r24, 0x00	; 0
	}
	
	return nibble;
}
  ac:	08 95       	ret

000000ae <shift_out_595>:
		}
	}
}

void shift_out_595(uint8_t data) {
	data = ~data;
  ae:	80 95       	com	r24
	for (int i = 7; i >= 0; i--) {
  b0:	27 e0       	ldi	r18, 0x07	; 7
  b2:	30 e0       	ldi	r19, 0x00	; 0
  b4:	19 c0       	rjmp	.+50     	; 0xe8 <shift_out_595+0x3a>
		// Set DATA bit
		if (data & (1 << i))
  b6:	48 2f       	mov	r20, r24
  b8:	50 e0       	ldi	r21, 0x00	; 0
  ba:	02 2e       	mov	r0, r18
  bc:	02 c0       	rjmp	.+4      	; 0xc2 <shift_out_595+0x14>
  be:	55 95       	asr	r21
  c0:	47 95       	ror	r20
  c2:	0a 94       	dec	r0
  c4:	e2 f7       	brpl	.-8      	; 0xbe <shift_out_595+0x10>
  c6:	40 ff       	sbrs	r20, 0
  c8:	04 c0       	rjmp	.+8      	; 0xd2 <shift_out_595+0x24>
		PORTC |= (1 << PC0);   // DATA high
  ca:	98 b1       	in	r25, 0x08	; 8
  cc:	91 60       	ori	r25, 0x01	; 1
  ce:	98 b9       	out	0x08, r25	; 8
  d0:	03 c0       	rjmp	.+6      	; 0xd8 <shift_out_595+0x2a>
		else
		PORTC &= ~(1<<PC0);  // DATA low
  d2:	98 b1       	in	r25, 0x08	; 8
  d4:	9e 7f       	andi	r25, 0xFE	; 254
  d6:	98 b9       	out	0x08, r25	; 8

		// Pulse CLOCK
		PORTC |= (1<<PC1);
  d8:	98 b1       	in	r25, 0x08	; 8
  da:	92 60       	ori	r25, 0x02	; 2
  dc:	98 b9       	out	0x08, r25	; 8
		PORTC &= ~(1<<PC1);
  de:	98 b1       	in	r25, 0x08	; 8
  e0:	9d 7f       	andi	r25, 0xFD	; 253
  e2:	98 b9       	out	0x08, r25	; 8
	}
}

void shift_out_595(uint8_t data) {
	data = ~data;
	for (int i = 7; i >= 0; i--) {
  e4:	21 50       	subi	r18, 0x01	; 1
  e6:	31 09       	sbc	r19, r1
  e8:	33 23       	and	r19, r19
  ea:	2c f7       	brge	.-54     	; 0xb6 <shift_out_595+0x8>
		PORTC |= (1<<PC1);
		PORTC &= ~(1<<PC1);
	}

	// Pulse LATCH
	PORTC |=(1<<PC2);
  ec:	88 b1       	in	r24, 0x08	; 8
  ee:	84 60       	ori	r24, 0x04	; 4
  f0:	88 b9       	out	0x08, r24	; 8
	PORTC &=~(1<<PC2);
  f2:	88 b1       	in	r24, 0x08	; 8
  f4:	8b 7f       	andi	r24, 0xFB	; 251
  f6:	88 b9       	out	0x08, r24	; 8
	PORTC &= ~(1<<PC0);
  f8:	88 b1       	in	r24, 0x08	; 8
  fa:	8e 7f       	andi	r24, 0xFE	; 254
  fc:	88 b9       	out	0x08, r24	; 8
  fe:	08 95       	ret

00000100 <main>:


int main(void)
{

	UBRR0L = 0X10;
 100:	80 e1       	ldi	r24, 0x10	; 16
 102:	80 93 c4 00 	sts	0x00C4, r24	; 0x8000c4 <__TEXT_REGION_LENGTH__+0x7f80c4>
	UBRR0H = 0;
 106:	10 92 c5 00 	sts	0x00C5, r1	; 0x8000c5 <__TEXT_REGION_LENGTH__+0x7f80c5>
	
	UCSR0B = (1 << RXEN0)|(1 << TXEN0); // receive & transmit enabled
 10a:	88 e1       	ldi	r24, 0x18	; 24
 10c:	80 93 c1 00 	sts	0x00C1, r24	; 0x8000c1 <__TEXT_REGION_LENGTH__+0x7f80c1>
	
	UCSR0C = 3 << UCSZ00; // 8 data-bits, 1 stop-bit, no parity
 110:	86 e0       	ldi	r24, 0x06	; 6
 112:	80 93 c2 00 	sts	0x00C2, r24	; 0x8000c2 <__TEXT_REGION_LENGTH__+0x7f80c2>
	
	DDRB = 0xFF;
 116:	8f ef       	ldi	r24, 0xFF	; 255
 118:	84 b9       	out	0x04, r24	; 4
	DDRC = 0xFF;
 11a:	87 b9       	out	0x07, r24	; 7
	DDRD |= (1 << DDD6);
 11c:	8a b1       	in	r24, 0x0a	; 10
 11e:	80 64       	ori	r24, 0x40	; 64
 120:	8a b9       	out	0x0a, r24	; 10
	
	PORTB =0;
 122:	15 b8       	out	0x05, r1	; 5
	PORTC = 0;
 124:	18 b8       	out	0x08, r1	; 8
	PORTD = 0;
 126:	1b b8       	out	0x0b, r1	; 11
	
	OCR0A = 0;
 128:	17 bc       	out	0x27, r1	; 39
	// set PWM for 50% duty cycle
	
	TCCR0A |= (1 << COM0A1);
 12a:	84 b5       	in	r24, 0x24	; 36
 12c:	80 68       	ori	r24, 0x80	; 128
 12e:	84 bd       	out	0x24, r24	; 36
	// set none-inverting mode
	
	TCCR0A |= (1 << WGM01) | (1 << WGM00);
 130:	84 b5       	in	r24, 0x24	; 36
 132:	83 60       	ori	r24, 0x03	; 3
 134:	84 bd       	out	0x24, r24	; 36
	// set fast PWM Mode
	
	TCCR0B |= (1 << CS01);
 136:	85 b5       	in	r24, 0x25	; 37
 138:	82 60       	ori	r24, 0x02	; 2
 13a:	85 bd       	out	0x25, r24	; 37
	loop_until_bit_is_set(UCSR0A, UDRE0); UDR0 = c;
}

inline byte serial_read_byte()
{
	loop_until_bit_is_set(UCSR0A, RXC0); return UDR0;
 13c:	80 91 c0 00 	lds	r24, 0x00C0	; 0x8000c0 <__TEXT_REGION_LENGTH__+0x7f80c0>
 140:	88 23       	and	r24, r24
 142:	e4 f7       	brge	.-8      	; 0x13c <main+0x3c>
 144:	80 91 c6 00 	lds	r24, 0x00C6	; 0x8000c6 <__TEXT_REGION_LENGTH__+0x7f80c6>
	
	while (1)
	{
		byte input = serial_read_byte();
		
		if (input == 'B')
 148:	82 34       	cpi	r24, 0x42	; 66
 14a:	99 f4       	brne	.+38     	; 0x172 <main+0x72>
		{
			byte hi = serial_read_nibble();
 14c:	0e 94 40 00 	call	0x80	; 0x80 <serial_read_nibble>
 150:	c8 2f       	mov	r28, r24
			byte lo = serial_read_nibble();
 152:	0e 94 40 00 	call	0x80	; 0x80 <serial_read_nibble>
			
			PORTB = (hi << 4) | lo;
 156:	40 e1       	ldi	r20, 0x10	; 16
 158:	c4 9f       	mul	r28, r20
 15a:	90 01       	movw	r18, r0
 15c:	11 24       	eor	r1, r1
 15e:	82 2b       	or	r24, r18
 160:	85 b9       	out	0x05, r24	; 5

typedef unsigned char byte;

inline void serial_write_byte(byte c)
{
	loop_until_bit_is_set(UCSR0A, UDRE0); UDR0 = c;
 162:	80 91 c0 00 	lds	r24, 0x00C0	; 0x8000c0 <__TEXT_REGION_LENGTH__+0x7f80c0>
 166:	85 ff       	sbrs	r24, 5
 168:	fc cf       	rjmp	.-8      	; 0x162 <main+0x62>
 16a:	8e e2       	ldi	r24, 0x2E	; 46
 16c:	80 93 c6 00 	sts	0x00C6, r24	; 0x8000c6 <__TEXT_REGION_LENGTH__+0x7f80c6>
 170:	e5 cf       	rjmp	.-54     	; 0x13c <main+0x3c>
			
			PORTB = (hi << 4) | lo;
			
			serial_write_byte('.');
		}
		else if (input == 'S'){
 172:	83 35       	cpi	r24, 0x53	; 83
 174:	b1 f4       	brne	.+44     	; 0x1a2 <main+0xa2>
			byte hi = serial_read_nibble();
 176:	0e 94 40 00 	call	0x80	; 0x80 <serial_read_nibble>
 17a:	c8 2f       	mov	r28, r24
			byte lo = serial_read_nibble();
 17c:	0e 94 40 00 	call	0x80	; 0x80 <serial_read_nibble>
			
			shift_out_595((hi << 4) | lo);
 180:	50 e1       	ldi	r21, 0x10	; 16
 182:	c5 9f       	mul	r28, r21
 184:	90 01       	movw	r18, r0
 186:	11 24       	eor	r1, r1
 188:	a9 01       	movw	r20, r18
 18a:	48 2b       	or	r20, r24
 18c:	ca 01       	movw	r24, r20
 18e:	0e 94 57 00 	call	0xae	; 0xae <shift_out_595>

typedef unsigned char byte;

inline void serial_write_byte(byte c)
{
	loop_until_bit_is_set(UCSR0A, UDRE0); UDR0 = c;
 192:	80 91 c0 00 	lds	r24, 0x00C0	; 0x8000c0 <__TEXT_REGION_LENGTH__+0x7f80c0>
 196:	85 ff       	sbrs	r24, 5
 198:	fc cf       	rjmp	.-8      	; 0x192 <main+0x92>
 19a:	81 e2       	ldi	r24, 0x21	; 33
 19c:	80 93 c6 00 	sts	0x00C6, r24	; 0x8000c6 <__TEXT_REGION_LENGTH__+0x7f80c6>
 1a0:	cd cf       	rjmp	.-102    	; 0x13c <main+0x3c>
			byte lo = serial_read_nibble();
			
			shift_out_595((hi << 4) | lo);
			serial_write_byte('!');
		}
		else if (input=='P'){
 1a2:	80 35       	cpi	r24, 0x50	; 80
 1a4:	99 f4       	brne	.+38     	; 0x1cc <main+0xcc>
			byte hi = serial_read_nibble();
 1a6:	0e 94 40 00 	call	0x80	; 0x80 <serial_read_nibble>
 1aa:	c8 2f       	mov	r28, r24
			byte lo = serial_read_nibble();
 1ac:	0e 94 40 00 	call	0x80	; 0x80 <serial_read_nibble>
			OCR0A = (hi << 4) | lo;
 1b0:	50 e1       	ldi	r21, 0x10	; 16
 1b2:	c5 9f       	mul	r28, r21
 1b4:	90 01       	movw	r18, r0
 1b6:	11 24       	eor	r1, r1
 1b8:	82 2b       	or	r24, r18
 1ba:	87 bd       	out	0x27, r24	; 39

typedef unsigned char byte;

inline void serial_write_byte(byte c)
{
	loop_until_bit_is_set(UCSR0A, UDRE0); UDR0 = c;
 1bc:	80 91 c0 00 	lds	r24, 0x00C0	; 0x8000c0 <__TEXT_REGION_LENGTH__+0x7f80c0>
 1c0:	85 ff       	sbrs	r24, 5
 1c2:	fc cf       	rjmp	.-8      	; 0x1bc <main+0xbc>
 1c4:	8c e7       	ldi	r24, 0x7C	; 124
 1c6:	80 93 c6 00 	sts	0x00C6, r24	; 0x8000c6 <__TEXT_REGION_LENGTH__+0x7f80c6>
 1ca:	b8 cf       	rjmp	.-144    	; 0x13c <main+0x3c>
 1cc:	80 91 c0 00 	lds	r24, 0x00C0	; 0x8000c0 <__TEXT_REGION_LENGTH__+0x7f80c0>
 1d0:	85 ff       	sbrs	r24, 5
 1d2:	fc cf       	rjmp	.-8      	; 0x1cc <main+0xcc>
 1d4:	8f e3       	ldi	r24, 0x3F	; 63
 1d6:	80 93 c6 00 	sts	0x00C6, r24	; 0x8000c6 <__TEXT_REGION_LENGTH__+0x7f80c6>
 1da:	b0 cf       	rjmp	.-160    	; 0x13c <main+0x3c>

000001dc <_exit>:
 1dc:	f8 94       	cli

000001de <__stop_program>:
 1de:	ff cf       	rjmp	.-2      	; 0x1de <__stop_program>
